target datalayout = "e-m:e-p270:32:32-p271:32:32-p272:64:64-i64:64-i128:128-f80:128-n8:16:32:64-S128"
target triple = "x86_64-pc-linux-gnu"

%struct._lv_obj_t = type { ptr, ptr, ptr, ptr, ptr, %struct.lv_area_t, i32, i16, i16 }
%struct.lv_area_t = type { i32, i32, i32, i32 }
%struct._lv_display_t = type { i32, i32, i32, i32, i32, i32, i32, ptr, ptr, ptr, ptr, ptr, i32, i32, i8, i32, i16, i32, [32 x %struct.lv_area_t], [32 x i8], i32, i32, %struct.lv_ll_t, %struct._lv_draw_buf_t, %struct._lv_draw_buf_t, ptr, ptr, ptr, ptr, ptr, ptr, ptr, ptr, ptr, ptr, i32, i8, ptr, ptr, %struct.lv_event_list_t, i8, ptr, ptr, i32, %struct.lv_area_t }
%struct.lv_ll_t = type { i32, ptr, ptr }
%struct._lv_draw_buf_t = type { %struct.lv_image_header_t, i32, ptr, ptr, ptr }
%struct.lv_image_header_t = type <{ i64, i32 }>
%struct.lv_event_list_t = type { %struct._lv_array_t, i8 }
%struct._lv_array_t = type { ptr, i32, i32, i32, i8 }
%struct._lv_obj_spec_attr_t = type { ptr, ptr, %struct.lv_event_list_t, %struct.lv_point_t, i32, i32, i16, i16 }
%struct.lv_point_t = type { i32, i32 }
%struct._lv_obj_class_t = type { ptr, ptr, ptr, ptr, ptr, ptr, i32, i32, i32 }

; Function Attrs: nounwind uwtable
define internal i32 @get_instance_size(ptr noundef %0) #0 {
  %2 = alloca i32, align 4
  %3 = alloca ptr, align 8
  %4 = alloca ptr, align 8
  %5 = alloca i32, align 4
  store ptr %0, ptr %3, align 8, !tbaa !3
  call void @llvm.lifetime.start.p0(i64 8, ptr %4) #3
  %6 = load ptr, ptr %3, align 8, !tbaa !3
  store ptr %6, ptr %4, align 8, !tbaa !3
  br label %7

7:                                                ; preds = %19, %1
  %8 = load ptr, ptr %4, align 8, !tbaa !3
  %9 = icmp ne ptr %8, null
  br i1 %9, label %10, label %17

10:                                               ; preds = %7
  %11 = load ptr, ptr %4, align 8, !tbaa !3
  %12 = getelementptr inbounds nuw %struct._lv_obj_class_t, ptr %11, i32 0, i32 8
  %13 = load i32, ptr %12, align 8
  %14 = lshr i32 %13, 4
  %15 = and i32 %14, 65535
  %16 = icmp eq i32 %15, 0
  br label %17

17:                                               ; preds = %10, %7
  %18 = phi i1 [ false, %7 ], [ %16, %10 ]
  br i1 %18, label %19, label %23

19:                                               ; preds = %17
  %20 = load ptr, ptr %4, align 8, !tbaa !3
  %21 = getelementptr inbounds nuw %struct._lv_obj_class_t, ptr %20, i32 0, i32 0
  %22 = load ptr, ptr %21, align 8, !tbaa !48
  store ptr %22, ptr %4, align 8, !tbaa !3
  br label %7, !llvm.loop !50

23:                                               ; preds = %17
  %24 = load ptr, ptr %4, align 8, !tbaa !3
  %25 = icmp eq ptr %24, null
  br i1 %25, label %26, label %27

26:                                               ; preds = %23
  store i32 0, ptr %2, align 4
  store i32 1, ptr %5, align 4
  br label %33

27:                                               ; preds = %23
  %28 = load ptr, ptr %4, align 8, !tbaa !3
  %29 = getelementptr inbounds nuw %struct._lv_obj_class_t, ptr %28, i32 0, i32 8
  %30 = load i32, ptr %29, align 8
  %31 = lshr i32 %30, 4
  %32 = and i32 %31, 65535
  store i32 %32, ptr %2, align 4
  store i32 1, ptr %5, align 4
  br label %33

33:                                               ; preds = %27, %26
  call void @llvm.lifetime.end.p0(i64 8, ptr %4) #3
  %34 = load i32, ptr %2, align 4
  ret i32 %34
}

; Function Attrs: nounwind uwtable
define ptr @lv_obj_class_create_obj(ptr noundef %0, ptr noundef %1) #0 {
  %3 = alloca ptr, align 8
  %4 = alloca ptr, align 8
  %5 = alloca ptr, align 8
  %6 = alloca i32, align 4
  %7 = alloca ptr, align 8
  %8 = alloca i32, align 4
  %9 = alloca ptr, align 8
  %10 = alloca ptr, align 8
  store ptr %0, ptr %4, align 8, !tbaa !3
  store ptr %1, ptr %5, align 8, !tbaa !8
  call void @llvm.lifetime.start.p0(i64 4, ptr %6) #3
  %11 = load ptr, ptr %4, align 8, !tbaa !3
  %12 = call i32 @get_instance_size(ptr noundef %11)
  store i32 %12, ptr %6, align 4, !tbaa !10
  call void @llvm.lifetime.start.p0(i64 8, ptr %7) #3
  %13 = load i32, ptr %6, align 4, !tbaa !10
  %14 = zext i32 %13 to i64
  %15 = call ptr @lv_malloc_zeroed(i64 noundef %14)
  store ptr %15, ptr %7, align 8, !tbaa !8
  %16 = load ptr, ptr %7, align 8, !tbaa !8
  %17 = icmp eq ptr %16, null
  br i1 %17, label %18, label %19

18:                                               ; preds = %2
  store ptr null, ptr %3, align 8
  store i32 1, ptr %8, align 4
  br label %170

19:                                               ; preds = %2
  %20 = load ptr, ptr %4, align 8, !tbaa !3
  %21 = load ptr, ptr %7, align 8, !tbaa !8
  %22 = getelementptr inbounds nuw %struct._lv_obj_t, ptr %21, i32 0, i32 0
  store ptr %20, ptr %22, align 8, !tbaa !12
  %23 = load ptr, ptr %5, align 8, !tbaa !8
  %24 = load ptr, ptr %7, align 8, !tbaa !8
  %25 = getelementptr inbounds nuw %struct._lv_obj_t, ptr %24, i32 0, i32 1
  store ptr %23, ptr %25, align 8, !tbaa !18
  %26 = load ptr, ptr %5, align 8, !tbaa !8
  %27 = icmp eq ptr %26, null
  br i1 %27, label %28, label %110

28:                                               ; preds = %19
  call void @llvm.lifetime.start.p0(i64 8, ptr %9) #3
  %29 = call ptr @lv_display_get_default()
  store ptr %29, ptr %9, align 8, !tbaa !19
  %30 = load ptr, ptr %9, align 8, !tbaa !19
  %31 = icmp ne ptr %30, null
  br i1 %31, label %37, label %32

32:                                               ; preds = %28
  br label %33

33:                                               ; preds = %32
  br label %34

34:                                               ; preds = %33
  br label %35

35:                                               ; preds = %34
  %36 = load ptr, ptr %7, align 8, !tbaa !8
  call void @lv_free(ptr noundef %36)
  store ptr null, ptr %3, align 8
  store i32 1, ptr %8, align 4
  br label %107

37:                                               ; preds = %28
  %38 = load ptr, ptr %9, align 8, !tbaa !19
  %39 = getelementptr inbounds nuw %struct._lv_display_t, ptr %38, i32 0, i32 28
  %40 = load ptr, ptr %39, align 8, !tbaa !21
  %41 = icmp eq ptr %40, null
  br i1 %41, label %42, label %45

42:                                               ; preds = %37
  %43 = load ptr, ptr %9, align 8, !tbaa !19
  %44 = getelementptr inbounds nuw %struct._lv_display_t, ptr %43, i32 0, i32 35
  store i32 0, ptr %44, align 8, !tbaa !36
  br label %45

45:                                               ; preds = %42, %37
  call void @llvm.lifetime.start.p0(i64 8, ptr %10) #3
  %46 = load ptr, ptr %9, align 8, !tbaa !19
  %47 = getelementptr inbounds nuw %struct._lv_display_t, ptr %46, i32 0, i32 28
  %48 = load ptr, ptr %47, align 8, !tbaa !21
  %49 = load ptr, ptr %9, align 8, !tbaa !19
  %50 = getelementptr inbounds nuw %struct._lv_display_t, ptr %49, i32 0, i32 35
  %51 = load i32, ptr %50, align 8, !tbaa !36
  %52 = add i32 %51, 1
  %53 = zext i32 %52 to i64
  %54 = mul i64 8, %53
  %55 = call ptr @lv_realloc(ptr noundef %48, i64 noundef %54)
  store ptr %55, ptr %10, align 8, !tbaa !37
  br label %56

56:                                               ; preds = %45
  %57 = load ptr, ptr %10, align 8, !tbaa !37
  %58 = icmp ne ptr %57, null
  br i1 %58, label %65, label %59

59:                                               ; preds = %56
  br label %60

60:                                               ; preds = %59
  br label %61

61:                                               ; preds = %60
  br label %62

62:                                               ; preds = %61
  br label %63

63:                                               ; preds = %64, %62
  br label %64

64:                                               ; preds = %63
  br label %63

65:                                               ; preds = %56
  br label %66

66:                                               ; preds = %65
  br label %67

67:                                               ; preds = %66
  %68 = load ptr, ptr %10, align 8, !tbaa !37
  %69 = icmp eq ptr %68, null
  br i1 %69, label %70, label %72

70:                                               ; preds = %67
  %71 = load ptr, ptr %7, align 8, !tbaa !8
  call void @lv_free(ptr noundef %71)
  store ptr null, ptr %3, align 8
  store i32 1, ptr %8, align 4
  br label %106

72:                                               ; preds = %67
  %73 = load ptr, ptr %9, align 8, !tbaa !19
  %74 = getelementptr inbounds nuw %struct._lv_display_t, ptr %73, i32 0, i32 35
  %75 = load i32, ptr %74, align 8, !tbaa !36
  %76 = add i32 %75, 1
  store i32 %76, ptr %74, align 8, !tbaa !36
  %77 = load ptr, ptr %10, align 8, !tbaa !37
  %78 = load ptr, ptr %9, align 8, !tbaa !19
  %79 = getelementptr inbounds nuw %struct._lv_display_t, ptr %78, i32 0, i32 28
  store ptr %77, ptr %79, align 8, !tbaa !21
  %80 = load ptr, ptr %7, align 8, !tbaa !8
  %81 = load ptr, ptr %9, align 8, !tbaa !19
  %82 = getelementptr inbounds nuw %struct._lv_display_t, ptr %81, i32 0, i32 28
  %83 = load ptr, ptr %82, align 8, !tbaa !21
  %84 = load ptr, ptr %9, align 8, !tbaa !19
  %85 = getelementptr inbounds nuw %struct._lv_display_t, ptr %84, i32 0, i32 35
  %86 = load i32, ptr %85, align 8, !tbaa !36
  %87 = sub i32 %86, 1
  %88 = zext i32 %87 to i64
  %89 = getelementptr inbounds nuw ptr, ptr %83, i64 %88
  store ptr %80, ptr %89, align 8, !tbaa !8
  %90 = load ptr, ptr %7, align 8, !tbaa !8
  %91 = getelementptr inbounds nuw %struct._lv_obj_t, ptr %90, i32 0, i32 5
  %92 = getelementptr inbounds nuw %struct.lv_area_t, ptr %91, i32 0, i32 0
  store i32 0, ptr %92, align 8, !tbaa !38
  %93 = load ptr, ptr %7, align 8, !tbaa !8
  %94 = getelementptr inbounds nuw %struct._lv_obj_t, ptr %93, i32 0, i32 5
  %95 = getelementptr inbounds nuw %struct.lv_area_t, ptr %94, i32 0, i32 1
  store i32 0, ptr %95, align 4, !tbaa !39
  %96 = call i32 @lv_display_get_horizontal_resolution(ptr noundef null)
  %97 = sub nsw i32 %96, 1
  %98 = load ptr, ptr %7, align 8, !tbaa !8
  %99 = getelementptr inbounds nuw %struct._lv_obj_t, ptr %98, i32 0, i32 5
  %100 = getelementptr inbounds nuw %struct.lv_area_t, ptr %99, i32 0, i32 2
  store i32 %97, ptr %100, align 8, !tbaa !40
  %101 = call i32 @lv_display_get_vertical_resolution(ptr noundef null)
  %102 = sub nsw i32 %101, 1
  %103 = load ptr, ptr %7, align 8, !tbaa !8
  %104 = getelementptr inbounds nuw %struct._lv_obj_t, ptr %103, i32 0, i32 5
  %105 = getelementptr inbounds nuw %struct.lv_area_t, ptr %104, i32 0, i32 3
  store i32 %102, ptr %105, align 4, !tbaa !41
  store i32 0, ptr %8, align 4
  br label %106

106:                                              ; preds = %72, %70
  call void @llvm.lifetime.end.p0(i64 8, ptr %10) #3
  br label %107

107:                                              ; preds = %106, %35
  call void @llvm.lifetime.end.p0(i64 8, ptr %9) #3
  %108 = load i32, ptr %8, align 4
  switch i32 %108, label %170 [
    i32 0, label %109
  ]

109:                                              ; preds = %107
  br label %168

110:                                              ; preds = %19
  br label %111

111:                                              ; preds = %110
  %112 = load ptr, ptr %5, align 8, !tbaa !8
  %113 = icmp ne ptr %112, null
  br i1 %113, label %120, label %114

114:                                              ; preds = %111
  br label %115

115:                                              ; preds = %114
  br label %116

116:                                              ; preds = %115
  br label %117

117:                                              ; preds = %116
  br label %118

118:                                              ; preds = %119, %117
  br label %119

119:                                              ; preds = %118
  br label %118

120:                                              ; preds = %111
  br label %121

121:                                              ; preds = %120
  br label %122

122:                                              ; preds = %121
  %123 = load ptr, ptr %5, align 8, !tbaa !8
  %124 = getelementptr inbounds nuw %struct._lv_obj_t, ptr %123, i32 0, i32 2
  %125 = load ptr, ptr %124, align 8, !tbaa !42
  %126 = icmp eq ptr %125, null
  br i1 %126, label %127, label %129

127:                                              ; preds = %122
  %128 = load ptr, ptr %5, align 8, !tbaa !8
  call void @lv_obj_allocate_spec_attr(ptr noundef %128)
  br label %129

129:                                              ; preds = %127, %122
  %130 = load ptr, ptr %5, align 8, !tbaa !8
  %131 = getelementptr inbounds nuw %struct._lv_obj_t, ptr %130, i32 0, i32 2
  %132 = load ptr, ptr %131, align 8, !tbaa !42
  %133 = getelementptr inbounds nuw %struct._lv_obj_spec_attr_t, ptr %132, i32 0, i32 6
  %134 = load i16, ptr %133, align 8, !tbaa !43
  %135 = add i16 %134, 1
  store i16 %135, ptr %133, align 8, !tbaa !43
  %136 = load ptr, ptr %5, align 8, !tbaa !8
  %137 = getelementptr inbounds nuw %struct._lv_obj_t, ptr %136, i32 0, i32 2
  %138 = load ptr, ptr %137, align 8, !tbaa !42
  %139 = getelementptr inbounds nuw %struct._lv_obj_spec_attr_t, ptr %138, i32 0, i32 0
  %140 = load ptr, ptr %139, align 8, !tbaa !47
  %141 = load ptr, ptr %5, align 8, !tbaa !8
  %142 = getelementptr inbounds nuw %struct._lv_obj_t, ptr %141, i32 0, i32 2
  %143 = load ptr, ptr %142, align 8, !tbaa !42
  %144 = getelementptr inbounds nuw %struct._lv_obj_spec_attr_t, ptr %143, i32 0, i32 6
  %145 = load i16, ptr %144, align 8, !tbaa !43
  %146 = zext i16 %145 to i64
  %147 = mul i64 8, %146
  %148 = call ptr @lv_realloc(ptr noundef %140, i64 noundef %147)
  %149 = load ptr, ptr %5, align 8, !tbaa !8
  %150 = getelementptr inbounds nuw %struct._lv_obj_t, ptr %149, i32 0, i32 2
  %151 = load ptr, ptr %150, align 8, !tbaa !42
  %152 = getelementptr inbounds nuw %struct._lv_obj_spec_attr_t, ptr %151, i32 0, i32 0
  store ptr %148, ptr %152, align 8, !tbaa !47
  %153 = load ptr, ptr %7, align 8, !tbaa !8
  %154 = load ptr, ptr %5, align 8, !tbaa !8
  %155 = getelementptr inbounds nuw %struct._lv_obj_t, ptr %154, i32 0, i32 2
  %156 = load ptr, ptr %155, align 8, !tbaa !42
  %157 = getelementptr inbounds nuw %struct._lv_obj_spec_attr_t, ptr %156, i32 0, i32 0
  %158 = load ptr, ptr %157, align 8, !tbaa !47
  %159 = load ptr, ptr %5, align 8, !tbaa !8
  %160 = getelementptr inbounds nuw %struct._lv_obj_t, ptr %159, i32 0, i32 2
  %161 = load ptr, ptr %160, align 8, !tbaa !42
  %162 = getelementptr inbounds nuw %struct._lv_obj_spec_attr_t, ptr %161, i32 0, i32 6
  %163 = load i16, ptr %162, align 8, !tbaa !43
  %164 = zext i16 %163 to i32
  %165 = sub nsw i32 %164, 1
  %166 = sext i32 %165 to i64
  %167 = getelementptr inbounds ptr, ptr %158, i64 %166
  store ptr %153, ptr %167, align 8, !tbaa !8
  br label %168

168:                                              ; preds = %129, %109
  %169 = load ptr, ptr %7, align 8, !tbaa !8
  store ptr %169, ptr %3, align 8
  store i32 1, ptr %8, align 4
  br label %170

170:                                              ; preds = %168, %107, %18
  call void @llvm.lifetime.end.p0(i64 8, ptr %7) #3
  call void @llvm.lifetime.end.p0(i64 4, ptr %6) #3
  %171 = load ptr, ptr %3, align 8
  ret ptr %171
}