; Function Attrs: nounwind uwtable
define ptr @lv_obj_class_create_obj(ptr noundef %0, ptr noundef %1) local_unnamed_addr #0 {
  %cond7.i = icmp eq ptr %0, null
  br i1 %cond7.i, label %get_instance_size.exit, label %.lr.ph.i

.lr.ph.i:                                         ; preds = %2, %7
  %.08.i = phi ptr [ %8, %7 ], [ %0, %2 ]
  %3 = getelementptr inbounds nuw i8, ptr %.08.i, i64 56
  %4 = load i32, ptr %3, align 8
  %5 = and i32 %4, 1048560
  %6 = icmp eq i32 %5, 0
  br i1 %6, label %7, label %.critedge.i

7:                                                ; preds = %.lr.ph.i
  %8 = load ptr, ptr %.08.i, align 8, !tbaa !3
  %cond.i = icmp eq ptr %8, null
  br i1 %cond.i, label %get_instance_size.exit, label %.lr.ph.i, !llvm.loop !11

.critedge.i:                                      ; preds = %.lr.ph.i
  %9 = lshr i32 %4, 4
  %10 = and i32 %9, 65535
  %11 = zext nneg i32 %10 to i64
  br label %get_instance_size.exit

get_instance_size.exit:                           ; preds = %7, %2, %.critedge.i
  %.06.i = phi i64 [ %11, %.critedge.i ], [ 0, %2 ], [ 0, %7 ]
  %12 = tail call ptr @lv_malloc_zeroed(i64 noundef %.06.i) #3
  %13 = icmp eq ptr %12, null
  br i1 %13, label %65, label %14

14:                                               ; preds = %get_instance_size.exit
  store ptr %0, ptr %12, align 8, !tbaa !13
  %15 = getelementptr inbounds nuw i8, ptr %12, i64 8
  store ptr %1, ptr %15, align 8, !tbaa !20
  %16 = icmp eq ptr %1, null
  br i1 %16, label %17, label %45

17:                                               ; preds = %14
  %18 = tail call ptr @lv_display_get_default() #3
  %.not.not = icmp eq ptr %18, null
  br i1 %.not.not, label %.thread, label %19

.thread:                                          ; preds = %17
  tail call void @lv_free(ptr noundef nonnull %12) #3
  br label %65

19:                                               ; preds = %17
  %20 = getelementptr inbounds nuw i8, ptr %18, i64 776
  %21 = load ptr, ptr %20, align 8, !tbaa !21
  %22 = icmp eq ptr %21, null
  %23 = getelementptr inbounds nuw i8, ptr %18, i64 832
  br i1 %22, label %27, label %._crit_edge

._crit_edge:                                      ; preds = %19
  %.pre48 = load i32, ptr %23, align 8, !tbaa !35
  %24 = add i32 %.pre48, 1
  %25 = zext i32 %24 to i64
  %26 = shl nuw nsw i64 %25, 3
  br label %28

27:                                               ; preds = %19
  store i32 0, ptr %23, align 8, !tbaa !35
  br label %28

28:                                               ; preds = %._crit_edge, %27
  %29 = phi i64 [ %26, %._crit_edge ], [ 8, %27 ]
  %30 = tail call ptr @lv_realloc(ptr noundef %21, i64 noundef %29) #3
  %.not45 = icmp eq ptr %30, null
  br i1 %.not45, label %.preheader, label %31

.preheader:                                       ; preds = %28, %.preheader
  br label %.preheader

31:                                               ; preds = %28
  %32 = getelementptr inbounds nuw i8, ptr %18, i64 832
  %33 = load i32, ptr %32, align 8, !tbaa !35
  %34 = add i32 %33, 1
  store i32 %34, ptr %32, align 8, !tbaa !35
  store ptr %30, ptr %20, align 8, !tbaa !21
  %35 = zext i32 %33 to i64
  %36 = getelementptr inbounds nuw ptr, ptr %30, i64 %35
  store ptr %12, ptr %36, align 8, !tbaa !36
  %37 = getelementptr inbounds nuw i8, ptr %12, i64 40
  store i32 0, ptr %37, align 8, !tbaa !37
  %38 = getelementptr inbounds nuw i8, ptr %12, i64 44
  store i32 0, ptr %38, align 4, !tbaa !38
  %39 = tail call i32 @lv_display_get_horizontal_resolution(ptr noundef null) #3
  %40 = add nsw i32 %39, -1
  %41 = getelementptr inbounds nuw i8, ptr %12, i64 48
  store i32 %40, ptr %41, align 8, !tbaa !39
  %42 = tail call i32 @lv_display_get_vertical_resolution(ptr noundef null) #3
  %43 = add nsw i32 %42, -1
  %44 = getelementptr inbounds nuw i8, ptr %12, i64 52
  store i32 %43, ptr %44, align 4, !tbaa !40
  br label %65

45:                                               ; preds = %14
  %46 = getelementptr inbounds nuw i8, ptr %1, i64 16
  %47 = load ptr, ptr %46, align 8, !tbaa !41
  %48 = icmp eq ptr %47, null
  br i1 %48, label %49, label %50

49:                                               ; preds = %45
  tail call void @lv_obj_allocate_spec_attr(ptr noundef nonnull %1) #3
  %.pre = load ptr, ptr %46, align 8, !tbaa !41
  br label %50

50:                                               ; preds = %49, %45
  %51 = phi ptr [ %.pre, %49 ], [ %47, %45 ]
  %52 = getelementptr inbounds nuw i8, ptr %51, i64 64
  %53 = load i16, ptr %52, align 8, !tbaa !42
  %54 = add i16 %53, 1
  store i16 %54, ptr %52, align 8, !tbaa !42
  %55 = load ptr, ptr %51, align 8, !tbaa !46
  %56 = zext i16 %54 to i64
  %57 = shl nuw nsw i64 %56, 3
  %58 = tail call ptr @lv_realloc(ptr noundef %55, i64 noundef %57) #3
  %59 = load ptr, ptr %46, align 8, !tbaa !41
  store ptr %58, ptr %59, align 8, !tbaa !46
  %60 = getelementptr inbounds nuw i8, ptr %59, i64 64
  %61 = load i16, ptr %60, align 8, !tbaa !42
  %62 = zext i16 %61 to i64
  %63 = getelementptr ptr, ptr %58, i64 %62
  %64 = getelementptr i8, ptr %63, i64 -8
  store ptr %12, ptr %64, align 8, !tbaa !36
  br label %65

65:                                               ; preds = %50, %31, %.thread, %get_instance_size.exit
  %.0 = phi ptr [ null, %get_instance_size.exit ], [ null, %.thread ], [ %12, %31 ], [ %12, %50 ]
  ret ptr %.0
}